target datalayout = "e-m:e-p270:32:32-p271:32:32-p272:64:64-i64:64-i128:128-f80:128-n8:16:32:64-S128"
target triple = "x86_64-pc-linux-gnu"

%struct.LargeObjectDesc = type { i32, ptr, i32, i64, i32 }
%struct.ScanKeyData = type { i32, i16, i16, i32, i32, %struct.FmgrInfo, i64 }
%struct.FmgrInfo = type { ptr, i32, i16, i8, i8, i8, ptr, ptr, ptr }
%struct.FormData_pg_largeobject = type { i32, i32, %struct.varlena }
%struct.varlena = type { [4 x i8], [0 x i8] }
%struct.anon = type { i32, [0 x i8] }
%struct.HeapTupleData = type { i32, %struct.ItemPointerData, i32, ptr }
%struct.ItemPointerData = type { %struct.BlockIdData, i16 }
%struct.BlockIdData = type { i16, i16 }
%struct.HeapTupleHeaderData = type { %union.anon.2, %struct.ItemPointerData, i16, i16, i8, [0 x i8] }
%union.anon.2 = type { %struct.HeapTupleFields }
%struct.HeapTupleFields = type { i32, i32, %union.anon.3 }
%union.anon.3 = type { i32 }
%struct.varattrib_1b = type { i8, [0 x i8] }

@lo_heap_r = internal global ptr null, align 8
@lo_index_r = internal global ptr null, align 8
@CurrentResourceOwner = external global ptr, align 8
@TopTransactionResourceOwner = external global ptr, align 8
@.str.1 = private unnamed_addr constant [10 x i8] c"inv_api.c\00", align 1
@.str.4 = private unnamed_addr constant [27 x i8] c"invalid whence setting: %d\00", align 1
@__func__.inv_seek = private unnamed_addr constant [9 x i8] c"inv_seek\00", align 1
@.str.5 = private unnamed_addr constant [38 x i8] c"invalid large object seek target: %ld\00", align 1
@.str.6 = private unnamed_addr constant [35 x i8] c"null field found in pg_largeobject\00", align 1
@__func__.inv_getsize = private unnamed_addr constant [12 x i8] c"inv_getsize\00", align 1
@.str.9 = private unnamed_addr constant [72 x i8] c"pg_largeobject entry for OID %u, page %d has invalid data field size %d\00", align 1
@__func__.getdatafield = private unnamed_addr constant [13 x i8] c"getdatafield\00", align 1

; Function Attrs: nounwind uwtable
define internal void @getdatafield(ptr noundef %0, ptr noundef %1, ptr noundef %2, ptr noundef %3) #0 {
  %5 = alloca ptr, align 8
  %6 = alloca ptr, align 8
  %7 = alloca ptr, align 8
  %8 = alloca ptr, align 8
  %9 = alloca ptr, align 8
  %10 = alloca i32, align 4
  %11 = alloca i8, align 1
  store ptr %0, ptr %5, align 8
  store ptr %1, ptr %6, align 8
  store ptr %2, ptr %7, align 8
  store ptr %3, ptr %8, align 8
  call void @llvm.lifetime.start.p0(i64 8, ptr %9) #7
  call void @llvm.lifetime.start.p0(i64 4, ptr %10) #7
  call void @llvm.lifetime.start.p0(i64 1, ptr %11) #7
  %12 = load ptr, ptr %5, align 8
  %13 = getelementptr inbounds nuw %struct.FormData_pg_largeobject, ptr %12, i32 0, i32 2
  store ptr %13, ptr %9, align 8
  store i8 0, ptr %11, align 1
  %14 = load ptr, ptr %9, align 8
  %15 = getelementptr inbounds nuw %struct.varattrib_1b, ptr %14, i32 0, i32 0
  %16 = load i8, ptr %15, align 1
  %17 = zext i8 %16 to i32
  %18 = and i32 %17, 3
  %19 = icmp eq i32 %18, 0
  br i1 %19, label %23, label %20

20:                                               ; preds = %4
  %21 = load ptr, ptr %9, align 8
  %22 = call ptr @detoast_attr(ptr noundef %21)
  store ptr %22, ptr %9, align 8
  store i8 1, ptr %11, align 1
  br label %23

23:                                               ; preds = %20, %4
  %24 = load ptr, ptr %9, align 8
  %25 = getelementptr inbounds nuw %struct.anon, ptr %24, i32 0, i32 0
  %26 = load i32, ptr %25, align 4
  %27 = lshr i32 %26, 2
  %28 = and i32 %27, 1073741823
  %29 = sub i32 %28, 4
  store i32 %29, ptr %10, align 4
  %30 = load i32, ptr %10, align 4
  %31 = icmp slt i32 %30, 0
  br i1 %31, label %35, label %32

32:                                               ; preds = %23
  %33 = load i32, ptr %10, align 4
  %34 = icmp sgt i32 %33, 2048
  br i1 %34, label %35, label %54

35:                                               ; preds = %32, %23
  br label %36

36:                                               ; preds = %35
  br i1 true, label %37, label %39

37:                                               ; preds = %36
  %38 = call zeroext i1 @errstart_cold(i32 noundef 21, ptr noundef null) #8
  br i1 %38, label %41, label %51

39:                                               ; preds = %36
  %40 = call zeroext i1 @errstart(i32 noundef 21, ptr noundef null)
  br i1 %40, label %41, label %51

41:                                               ; preds = %39, %37
  %42 = call i32 @errcode(i32 noundef 16779816)
  %43 = load ptr, ptr %5, align 8
  %44 = getelementptr inbounds nuw %struct.FormData_pg_largeobject, ptr %43, i32 0, i32 0
  %45 = load i32, ptr %44, align 4
  %46 = load ptr, ptr %5, align 8
  %47 = getelementptr inbounds nuw %struct.FormData_pg_largeobject, ptr %46, i32 0, i32 1
  %48 = load i32, ptr %47, align 4
  %49 = load i32, ptr %10, align 4
  %50 = call i32 (ptr, ...) @errmsg(ptr noundef @.str.9, i32 noundef %45, i32 noundef %48, i32 noundef %49)
  call void @errfinish(ptr noundef @.str.1, i32 noundef 153, ptr noundef @__func__.getdatafield)
  br label %51

51:                                               ; preds = %41, %39, %37
  unreachable

52:                                               ; No predecessors!
  br label %53

53:                                               ; preds = %52
  br label %54

54:                                               ; preds = %53, %32
  %55 = load ptr, ptr %9, align 8
  %56 = load ptr, ptr %6, align 8
  store ptr %55, ptr %56, align 8
  %57 = load i32, ptr %10, align 4
  %58 = load ptr, ptr %7, align 8
  store i32 %57, ptr %58, align 4
  %59 = load i8, ptr %11, align 1, !range !4, !noundef !5
  %60 = trunc i8 %59 to i1
  %61 = load ptr, ptr %8, align 8
  %62 = zext i1 %60 to i8
  store i8 %62, ptr %61, align 1
  call void @llvm.lifetime.end.p0(i64 1, ptr %11) #7
  call void @llvm.lifetime.end.p0(i64 4, ptr %10) #7
  call void @llvm.lifetime.end.p0(i64 8, ptr %9) #7
  ret void
}

; Function Attrs: inlinehint nounwind uwtable
define internal ptr @GETSTRUCT(ptr noundef %0) #4 {
  %2 = alloca ptr, align 8
  store ptr %0, ptr %2, align 8
  %3 = load ptr, ptr %2, align 8
  %4 = getelementptr inbounds nuw %struct.HeapTupleData, ptr %3, i32 0, i32 3
  %5 = load ptr, ptr %4, align 8
  %6 = load ptr, ptr %2, align 8
  %7 = getelementptr inbounds nuw %struct.HeapTupleData, ptr %6, i32 0, i32 3
  %8 = load ptr, ptr %7, align 8
  %9 = getelementptr inbounds nuw %struct.HeapTupleHeaderData, ptr %8, i32 0, i32 4
  %10 = load i8, ptr %9, align 2
  %11 = zext i8 %10 to i32
  %12 = sext i32 %11 to i64
  %13 = getelementptr inbounds i8, ptr %5, i64 %12
  ret ptr %13
}

; Function Attrs: inlinehint nounwind uwtable
define internal zeroext i1 @HeapTupleHasNulls(ptr noundef %0) #4 {
  %2 = alloca ptr, align 8
  store ptr %0, ptr %2, align 8
  %3 = load ptr, ptr %2, align 8
  %4 = getelementptr inbounds nuw %struct.HeapTupleData, ptr %3, i32 0, i32 3
  %5 = load ptr, ptr %4, align 8
  %6 = getelementptr inbounds nuw %struct.HeapTupleHeaderData, ptr %5, i32 0, i32 3
  %7 = load i16, ptr %6, align 4
  %8 = zext i16 %7 to i32
  %9 = and i32 %8, 1
  %10 = icmp ne i32 %9, 0
  ret i1 %10
}

; Function Attrs: inlinehint nounwind uwtable
define internal i64 @ObjectIdGetDatum(i32 noundef %0) #4 {
  %2 = alloca i32, align 4
  store i32 %0, ptr %2, align 4
  %3 = load i32, ptr %2, align 4
  %4 = zext i32 %3 to i64
  ret i64 %4
}

; Function Attrs: nounwind uwtable
define internal void @open_lo_relation() #0 {
  %1 = alloca ptr, align 8
  %2 = alloca i32, align 4
  call void @llvm.lifetime.start.p0(i64 8, ptr %1) #7
  %3 = load ptr, ptr @lo_heap_r, align 8
  %4 = icmp ne ptr %3, null
  br i1 %4, label %5, label %9

5:                                                ; preds = %0
  %6 = load ptr, ptr @lo_index_r, align 8
  %7 = icmp ne ptr %6, null
  br i1 %7, label %8, label %9

8:                                                ; preds = %5
  store i32 1, ptr %2, align 4
  br label %23

9:                                                ; preds = %5, %0
  %10 = load ptr, ptr @CurrentResourceOwner, align 8
  store ptr %10, ptr %1, align 8
  %11 = load ptr, ptr @TopTransactionResourceOwner, align 8
  store ptr %11, ptr @CurrentResourceOwner, align 8
  %12 = load ptr, ptr @lo_heap_r, align 8
  %13 = icmp eq ptr %12, null
  br i1 %13, label %14, label %16

14:                                               ; preds = %9
  %15 = call ptr @table_open(i32 noundef 2613, i32 noundef 3)
  store ptr %15, ptr @lo_heap_r, align 8
  br label %16

16:                                               ; preds = %14, %9
  %17 = load ptr, ptr @lo_index_r, align 8
  %18 = icmp eq ptr %17, null
  br i1 %18, label %19, label %21

19:                                               ; preds = %16
  %20 = call ptr @index_open(i32 noundef 2683, i32 noundef 3)
  store ptr %20, ptr @lo_index_r, align 8
  br label %21

21:                                               ; preds = %19, %16
  %22 = load ptr, ptr %1, align 8
  store ptr %22, ptr @CurrentResourceOwner, align 8
  store i32 0, ptr %2, align 4
  br label %23

23:                                               ; preds = %21, %8
  call void @llvm.lifetime.end.p0(i64 8, ptr %1) #7
  %24 = load i32, ptr %2, align 4
  switch i32 %24, label %26 [
    i32 0, label %25
    i32 1, label %25
  ]

25:                                               ; preds = %23, %23
  ret void

26:                                               ; preds = %23
  unreachable
}

; Function Attrs: nounwind uwtable
define internal i64 @inv_getsize(ptr noundef %0) #0 {
  %2 = alloca ptr, align 8
  %3 = alloca i64, align 8
  %4 = alloca [1 x %struct.ScanKeyData], align 16
  %5 = alloca ptr, align 8
  %6 = alloca ptr, align 8
  %7 = alloca ptr, align 8
  %8 = alloca ptr, align 8
  %9 = alloca i32, align 4
  %10 = alloca i8, align 1
  store ptr %0, ptr %2, align 8
  call void @llvm.lifetime.start.p0(i64 8, ptr %3) #7
  store i64 0, ptr %3, align 8
  call void @llvm.lifetime.start.p0(i64 72, ptr %4) #7
  call void @llvm.lifetime.start.p0(i64 8, ptr %5) #7
  call void @llvm.lifetime.start.p0(i64 8, ptr %6) #7
  call void @open_lo_relation()
  %11 = getelementptr inbounds [1 x %struct.ScanKeyData], ptr %4, i64 0, i64 0
  %12 = load ptr, ptr %2, align 8
  %13 = getelementptr inbounds nuw %struct.LargeObjectDesc, ptr %12, i32 0, i32 0
  %14 = load i32, ptr %13, align 8
  %15 = call i64 @ObjectIdGetDatum(i32 noundef %14)
  call void @ScanKeyInit(ptr noundef %11, i16 noundef signext 1, i16 noundef zeroext 3, i32 noundef 184, i64 noundef %15)
  %16 = load ptr, ptr @lo_heap_r, align 8
  %17 = load ptr, ptr @lo_index_r, align 8
  %18 = load ptr, ptr %2, align 8
  %19 = getelementptr inbounds nuw %struct.LargeObjectDesc, ptr %18, i32 0, i32 1
  %20 = load ptr, ptr %19, align 8
  %21 = getelementptr inbounds [1 x %struct.ScanKeyData], ptr %4, i64 0, i64 0
  %22 = call ptr @systable_beginscan_ordered(ptr noundef %16, ptr noundef %17, ptr noundef %20, i32 noundef 1, ptr noundef %21)
  store ptr %22, ptr %5, align 8
  %23 = load ptr, ptr %5, align 8
  %24 = call ptr @systable_getnext_ordered(ptr noundef %23, i32 noundef -1)
  store ptr %24, ptr %6, align 8
  %25 = load ptr, ptr %6, align 8
  %26 = icmp ne ptr %25, null
  br i1 %26, label %27, label %58

27:                                               ; preds = %1
  call void @llvm.lifetime.start.p0(i64 8, ptr %7) #7
  call void @llvm.lifetime.start.p0(i64 8, ptr %8) #7
  call void @llvm.lifetime.start.p0(i64 4, ptr %9) #7
  call void @llvm.lifetime.start.p0(i64 1, ptr %10) #7
  %28 = load ptr, ptr %6, align 8
  %29 = call zeroext i1 @HeapTupleHasNulls(ptr noundef %28)
  br i1 %29, label %30, label %41

30:                                               ; preds = %27
  br label %31

31:                                               ; preds = %30
  br i1 true, label %32, label %34

32:                                               ; preds = %31
  %33 = call zeroext i1 @errstart_cold(i32 noundef 21, ptr noundef null) #8
  br i1 %33, label %36, label %38

34:                                               ; preds = %31
  %35 = call zeroext i1 @errstart(i32 noundef 21, ptr noundef null)
  br i1 %35, label %36, label %38

36:                                               ; preds = %34, %32
  %37 = call i32 (ptr, ...) @errmsg_internal(ptr noundef @.str.6)
  call void @errfinish(ptr noundef @.str.1, i32 noundef 374, ptr noundef @__func__.inv_getsize)
  br label %38

38:                                               ; preds = %36, %34, %32
  unreachable

39:                                               ; No predecessors!
  br label %40

40:                                               ; preds = %39
  br label %41

41:                                               ; preds = %40, %27
  %42 = load ptr, ptr %6, align 8
  %43 = call ptr @GETSTRUCT(ptr noundef %42)
  store ptr %43, ptr %7, align 8
  %44 = load ptr, ptr %7, align 8
  call void @getdatafield(ptr noundef %44, ptr noundef %8, ptr noundef %9, ptr noundef %10)
  %45 = load ptr, ptr %7, align 8
  %46 = getelementptr inbounds nuw %struct.FormData_pg_largeobject, ptr %45, i32 0, i32 1
  %47 = load i32, ptr %46, align 4
  %48 = sext i32 %47 to i64
  %49 = mul i64 %48, 2048
  %50 = load i32, ptr %9, align 4
  %51 = sext i32 %50 to i64
  %52 = add i64 %49, %51
  store i64 %52, ptr %3, align 8
  %53 = load i8, ptr %10, align 1, !range !4, !noundef !5
  %54 = trunc i8 %53 to i1
  br i1 %54, label %55, label %57

55:                                               ; preds = %41
  %56 = load ptr, ptr %8, align 8
  call void @pfree(ptr noundef %56)
  br label %57

57:                                               ; preds = %55, %41
  call void @llvm.lifetime.end.p0(i64 1, ptr %10) #7
  call void @llvm.lifetime.end.p0(i64 4, ptr %9) #7
  call void @llvm.lifetime.end.p0(i64 8, ptr %8) #7
  call void @llvm.lifetime.end.p0(i64 8, ptr %7) #7
  br label %58

58:                                               ; preds = %57, %1
  %59 = load ptr, ptr %5, align 8
  call void @systable_endscan_ordered(ptr noundef %59)
  %60 = load i64, ptr %3, align 8
  call void @llvm.lifetime.end.p0(i64 8, ptr %6) #7
  call void @llvm.lifetime.end.p0(i64 8, ptr %5) #7
  call void @llvm.lifetime.end.p0(i64 72, ptr %4) #7
  call void @llvm.lifetime.end.p0(i64 8, ptr %3) #7
  ret i64 %60
}

; Function Attrs: nounwind uwtable
define dso_local i64 @inv_seek(ptr noundef %0, i64 noundef %1, i32 noundef %2) #0 {
  %4 = alloca ptr, align 8
  %5 = alloca i64, align 8
  %6 = alloca i32, align 4
  %7 = alloca i64, align 8
  store ptr %0, ptr %4, align 8
  store i64 %1, ptr %5, align 8
  store i32 %2, ptr %6, align 4
  call void @llvm.lifetime.start.p0(i64 8, ptr %7) #7
  %8 = load i32, ptr %6, align 4
  switch i32 %8, label %22 [
    i32 0, label %9
    i32 1, label %11
    i32 2, label %17
  ]

9:                                                ; preds = %3
  %10 = load i64, ptr %5, align 8
  store i64 %10, ptr %7, align 8
  br label %35

11:                                               ; preds = %3
  %12 = load ptr, ptr %4, align 8
  %13 = getelementptr inbounds nuw %struct.LargeObjectDesc, ptr %12, i32 0, i32 3
  %14 = load i64, ptr %13, align 8
  %15 = load i64, ptr %5, align 8
  %16 = add i64 %14, %15
  store i64 %16, ptr %7, align 8
  br label %35

17:                                               ; preds = %3
  %18 = load ptr, ptr %4, align 8
  %19 = call i64 @inv_getsize(ptr noundef %18)
  %20 = load i64, ptr %5, align 8
  %21 = add i64 %19, %20
  store i64 %21, ptr %7, align 8
  br label %35

22:                                               ; preds = %3
  br label %23

23:                                               ; preds = %22
  br i1 true, label %24, label %26

24:                                               ; preds = %23
  %25 = call zeroext i1 @errstart_cold(i32 noundef 21, ptr noundef null) #8
  br i1 %25, label %28, label %32

26:                                               ; preds = %23
  %27 = call zeroext i1 @errstart(i32 noundef 21, ptr noundef null)
  br i1 %27, label %28, label %32

28:                                               ; preds = %26, %24
  %29 = call i32 @errcode(i32 noundef 50856066)
  %30 = load i32, ptr %6, align 4
  %31 = call i32 (ptr, ...) @errmsg(ptr noundef @.str.4, i32 noundef %30)
  call void @errfinish(ptr noundef @.str.1, i32 noundef 417, ptr noundef @__func__.inv_seek)
  br label %32

32:                                               ; preds = %28, %26, %24
  unreachable

33:                                               ; No predecessors!
  br label %34

34:                                               ; preds = %33
  store i64 0, ptr %7, align 8
  br label %35

35:                                               ; preds = %34, %17, %11, %9
  %36 = load i64, ptr %7, align 8
  %37 = icmp slt i64 %36, 0
  br i1 %37, label %41, label %38

38:                                               ; preds = %35
  %39 = load i64, ptr %7, align 8
  %40 = icmp sgt i64 %39, 4398046509056
  br i1 %40, label %41, label %54

41:                                               ; preds = %38, %35
  br label %42

42:                                               ; preds = %41
  br i1 true, label %43, label %45

43:                                               ; preds = %42
  %44 = call zeroext i1 @errstart_cold(i32 noundef 21, ptr noundef null) #8
  br i1 %44, label %47, label %51

45:                                               ; preds = %42
  %46 = call zeroext i1 @errstart(i32 noundef 21, ptr noundef null)
  br i1 %46, label %47, label %51

47:                                               ; preds = %45, %43
  %48 = call i32 @errcode(i32 noundef 50856066)
  %49 = load i64, ptr %7, align 8
  %50 = call i32 (ptr, ...) @errmsg_internal(ptr noundef @.str.5, i64 noundef %49)
  call void @errfinish(ptr noundef @.str.1, i32 noundef 430, ptr noundef @__func__.inv_seek)
  br label %51

51:                                               ; preds = %47, %45, %43
  unreachable

52:                                               ; No predecessors!
  br label %53

53:                                               ; preds = %52
  br label %54

54:                                               ; preds = %53, %38
  %55 = load i64, ptr %7, align 8
  %56 = load ptr, ptr %4, align 8
  %57 = getelementptr inbounds nuw %struct.LargeObjectDesc, ptr %56, i32 0, i32 3
  store i64 %55, ptr %57, align 8
  %58 = load i64, ptr %7, align 8
  call void @llvm.lifetime.end.p0(i64 8, ptr %7) #7
  ret i64 %58
}