; Function Attrs: nounwind uwtable
define dso_local range(i64 0, 4398046509057) i64 @inv_seek(ptr noundef captures(none) %0, i64 noundef %1, i32 noundef %2) local_unnamed_addr #0 {
  %4 = alloca [1 x %struct.ScanKeyData], align 16
  switch i32 %2, label %71 [
    i32 0, label %75
    i32 1, label %5
    i32 2, label %9
  ]

5:                                                ; preds = %3
  %6 = getelementptr inbounds nuw i8, ptr %0, i64 24
  %7 = load i64, ptr %6, align 8
  %8 = add i64 %7, %1
  br label %75

9:                                                ; preds = %3
  call void @llvm.lifetime.start.p0(i64 72, ptr nonnull %4) #9
  %10 = load ptr, ptr @lo_heap_r, align 8
  %11 = icmp ne ptr %10, null
  %12 = load ptr, ptr @lo_index_r, align 8
  %13 = icmp ne ptr %12, null
  %or.cond.i.i = select i1 %11, i1 %13, i1 false
  br i1 %or.cond.i.i, label %open_lo_relation.exit.i, label %14

14:                                               ; preds = %9
  %15 = load ptr, ptr @CurrentResourceOwner, align 8
  %16 = load ptr, ptr @TopTransactionResourceOwner, align 8
  store ptr %16, ptr @CurrentResourceOwner, align 8
  %17 = icmp eq ptr %10, null
  br i1 %17, label %18, label %20

18:                                               ; preds = %14
  %19 = tail call ptr @table_open(i32 noundef 2613, i32 noundef 3) #9
  store ptr %19, ptr @lo_heap_r, align 8
  %.pre.i.i = load ptr, ptr @lo_index_r, align 8
  br label %20

20:                                               ; preds = %18, %14
  %21 = phi ptr [ %.pre.i.i, %18 ], [ %12, %14 ]
  %22 = icmp eq ptr %21, null
  br i1 %22, label %23, label %25

23:                                               ; preds = %20
  %24 = tail call ptr @index_open(i32 noundef 2683, i32 noundef 3) #9
  store ptr %24, ptr @lo_index_r, align 8
  br label %25

25:                                               ; preds = %23, %20
  store ptr %15, ptr @CurrentResourceOwner, align 8
  br label %open_lo_relation.exit.i

open_lo_relation.exit.i:                          ; preds = %25, %9
  %26 = load i32, ptr %0, align 8
  %27 = zext i32 %26 to i64
  call void @ScanKeyInit(ptr noundef nonnull %4, i16 noundef signext 1, i16 noundef zeroext 3, i32 noundef 184, i64 noundef %27) #9
  %28 = load ptr, ptr @lo_heap_r, align 8
  %29 = load ptr, ptr @lo_index_r, align 8
  %30 = getelementptr inbounds nuw i8, ptr %0, i64 8
  %31 = load ptr, ptr %30, align 8
  %32 = call ptr @systable_beginscan_ordered(ptr noundef %28, ptr noundef %29, ptr noundef %31, i32 noundef 1, ptr noundef nonnull %4) #9
  %33 = call ptr @systable_getnext_ordered(ptr noundef %32, i32 noundef -1) #9
  %.not.i = icmp eq ptr %33, null
  br i1 %.not.i, label %inv_getsize.exit, label %34

34:                                               ; preds = %open_lo_relation.exit.i
  %35 = getelementptr i8, ptr %33, i64 16
  %.val.i = load ptr, ptr %35, align 8
  %36 = getelementptr i8, ptr %.val.i, i64 20
  %.val.val.i = load i16, ptr %36, align 4
  %37 = and i16 %.val.val.i, 1
  %.not13.i = icmp eq i16 %37, 0
  br i1 %.not13.i, label %41, label %38

38:                                               ; preds = %34
  %39 = call zeroext i1 @errstart_cold(i32 noundef 21, ptr noundef null) #10
  call void @llvm.assume(i1 %39)
  %40 = call i32 (ptr, ...) @errmsg_internal(ptr noundef nonnull @.str.6) #9
  call void @errfinish(ptr noundef nonnull @.str.1, i32 noundef 374, ptr noundef nonnull @__func__.inv_getsize) #9
  unreachable

41:                                               ; preds = %34
  %42 = getelementptr inbounds nuw i8, ptr %.val.i, i64 22
  %43 = load i8, ptr %42, align 2
  %44 = zext i8 %43 to i64
  %45 = getelementptr inbounds nuw i8, ptr %.val.i, i64 %44
  %46 = getelementptr inbounds nuw i8, ptr %45, i64 8
  %47 = load i8, ptr %46, align 1
  %48 = and i8 %47, 3
  %.not14.i = icmp eq i8 %48, 0
  br i1 %.not14.i, label %51, label %49

49:                                               ; preds = %41
  %50 = call ptr @detoast_attr(ptr noundef nonnull %46) #9
  br label %51

51:                                               ; preds = %49, %41
  %.015.i.i = phi ptr [ %46, %41 ], [ %50, %49 ]
  %52 = load i32, ptr %.015.i.i, align 4
  %53 = lshr i32 %52, 2
  %54 = add nsw i32 %53, -4
  %55 = add i32 %52, -8212
  %or.cond.i11.i = icmp ult i32 %55, -8196
  br i1 %or.cond.i11.i, label %56, label %getdatafield.exit.i

56:                                               ; preds = %51
  %57 = call zeroext i1 @errstart_cold(i32 noundef 21, ptr noundef null) #10
  call void @llvm.assume(i1 %57)
  %58 = call i32 @errcode(i32 noundef 16779816) #9
  %59 = load i32, ptr %45, align 4
  %60 = getelementptr inbounds nuw i8, ptr %45, i64 4
  %61 = load i32, ptr %60, align 4
  %62 = call i32 (ptr, ...) @errmsg(ptr noundef nonnull @.str.9, i32 noundef %59, i32 noundef %61, i32 noundef %54) #9
  call void @errfinish(ptr noundef nonnull @.str.1, i32 noundef 153, ptr noundef nonnull @__func__.getdatafield) #9
  unreachable

getdatafield.exit.i:                              ; preds = %51
  %63 = getelementptr inbounds nuw i8, ptr %45, i64 4
  %64 = load i32, ptr %63, align 4
  %65 = sext i32 %64 to i64
  %66 = shl nsw i64 %65, 11
  %67 = sext i32 %54 to i64
  %68 = add nsw i64 %66, %67
  br i1 %.not14.i, label %inv_getsize.exit, label %69

69:                                               ; preds = %getdatafield.exit.i
  call void @pfree(ptr noundef nonnull %.015.i.i) #9
  br label %inv_getsize.exit

inv_getsize.exit:                                 ; preds = %open_lo_relation.exit.i, %getdatafield.exit.i, %69
  %.0.i = phi i64 [ 0, %open_lo_relation.exit.i ], [ %68, %69 ], [ %68, %getdatafield.exit.i ]
  call void @systable_endscan_ordered(ptr noundef %32) #9
  call void @llvm.lifetime.end.p0(i64 72, ptr nonnull %4) #9
  %70 = add i64 %.0.i, %1
  br label %75

71:                                               ; preds = %3
  %72 = tail call zeroext i1 @errstart_cold(i32 noundef 21, ptr noundef null) #10
  tail call void @llvm.assume(i1 %72)
  %73 = tail call i32 @errcode(i32 noundef 50856066) #9
  %74 = tail call i32 (ptr, ...) @errmsg(ptr noundef nonnull @.str.4, i32 noundef %2) #9
  tail call void @errfinish(ptr noundef nonnull @.str.1, i32 noundef 417, ptr noundef nonnull @__func__.inv_seek) #9
  unreachable

75:                                               ; preds = %3, %inv_getsize.exit, %5
  %.0 = phi i64 [ %70, %inv_getsize.exit ], [ %8, %5 ], [ %1, %3 ]
  %or.cond = icmp ugt i64 %.0, 4398046509056
  br i1 %or.cond, label %76, label %80

76:                                               ; preds = %75
  %77 = call zeroext i1 @errstart_cold(i32 noundef 21, ptr noundef null) #10
  call void @llvm.assume(i1 %77)
  %78 = call i32 @errcode(i32 noundef 50856066) #9
  %79 = call i32 (ptr, ...) @errmsg_internal(ptr noundef nonnull @.str.5, i64 noundef %.0) #9
  call void @errfinish(ptr noundef nonnull @.str.1, i32 noundef 430, ptr noundef nonnull @__func__.inv_seek) #9
  unreachable

80:                                               ; preds = %75
  %81 = getelementptr inbounds nuw i8, ptr %0, i64 24
  store i64 %.0, ptr %81, align 8
  ret i64 %.0
}